; Function Attrs: mustprogress nounwind uwtable
define hidden void @_ZN2cv11bioinspired11RetinaColorD0Ev(ptr noundef nonnull align 8 dereferenceable(349) initializes((0, 8)) %0) unnamed_addr #6 align 2 personality ptr @__gxx_personality_v0 {
  store ptr getelementptr inbounds nuw inrange(-16, 16) (i8, ptr @_ZTVN2cv11bioinspired11RetinaColorE, i64 16), ptr %0, align 8, !tbaa !3
  %2 = getelementptr inbounds nuw i8, ptr %0, i64 328
  %3 = load ptr, ptr %2, align 8, !tbaa !16
  tail call void @_ZdlPv(ptr noundef %3) #19
  %4 = getelementptr inbounds nuw i8, ptr %0, i64 312
  %5 = load ptr, ptr %4, align 8, !tbaa !16
  tail call void @_ZdlPv(ptr noundef %5) #19
  %6 = getelementptr inbounds nuw i8, ptr %0, i64 296
  %7 = load ptr, ptr %6, align 8, !tbaa !16
  tail call void @_ZdlPv(ptr noundef %7) #19
  %8 = getelementptr inbounds nuw i8, ptr %0, i64 280
  %9 = load ptr, ptr %8, align 8, !tbaa !16
  tail call void @_ZdlPv(ptr noundef %9) #19
  %10 = getelementptr inbounds nuw i8, ptr %0, i64 264
  %11 = load ptr, ptr %10, align 8, !tbaa !16
  tail call void @_ZdlPv(ptr noundef %11) #19
  %12 = getelementptr inbounds nuw i8, ptr %0, i64 248
  %13 = load ptr, ptr %12, align 8, !tbaa !16
  tail call void @_ZdlPv(ptr noundef %13) #19
  %14 = getelementptr inbounds nuw i8, ptr %0, i64 232
  %15 = load ptr, ptr %14, align 8, !tbaa !16
  tail call void @_ZdlPv(ptr noundef %15) #19
  %16 = getelementptr inbounds nuw i8, ptr %0, i64 216
  %17 = load ptr, ptr %16, align 8, !tbaa !12
  tail call void @_ZdlPv(ptr noundef %17) #19
  %18 = getelementptr inbounds nuw i8, ptr %0, i64 8
  tail call void @_ZN2cv11bioinspired17BasicRetinaFilterD2Ev(ptr noundef nonnull align 8 dereferenceable(168) %18) #19
  tail call void @_ZdlPv(ptr noundef nonnull %0) #21
  ret void
}